target datalayout = "e-m:e-p270:32:32-p271:32:32-p272:64:64-i64:64-i128:128-f80:128-n8:16:32:64-S128"
target triple = "x86_64-pc-linux-gnu"

%struct.ExprContext = type { i32, ptr, ptr, ptr, ptr, ptr, ptr, ptr, ptr, ptr, i64, i8, i64, i8, ptr, ptr, ptr, ptr }
%struct.ExprContext_CB = type { ptr, ptr, i64 }

@CurrentMemoryContext = external global ptr, align 8

; Function Attrs: inlinehint nounwind uwtable
define internal ptr @MemoryContextSwitchTo(ptr noundef %0) #3 {
  %2 = alloca ptr, align 8
  %3 = alloca ptr, align 8
  store ptr %0, ptr %2, align 8
  call void @llvm.lifetime.start.p0(i64 8, ptr %3) #6
  %4 = load ptr, ptr @CurrentMemoryContext, align 8
  store ptr %4, ptr %3, align 8
  %5 = load ptr, ptr %2, align 8
  store ptr %5, ptr @CurrentMemoryContext, align 8
  %6 = load ptr, ptr %3, align 8
  call void @llvm.lifetime.end.p0(i64 8, ptr %3) #6
  ret ptr %6
}

; Function Attrs: nounwind uwtable
define internal void @ShutdownExprContext(ptr noundef %0, i1 noundef zeroext %1) #0 {
  %3 = alloca ptr, align 8
  %4 = alloca i8, align 1
  %5 = alloca ptr, align 8
  %6 = alloca ptr, align 8
  %7 = alloca i32, align 4
  store ptr %0, ptr %3, align 8
  %8 = zext i1 %1 to i8
  store i8 %8, ptr %4, align 1
  call void @llvm.lifetime.start.p0(i64 8, ptr %5) #6
  call void @llvm.lifetime.start.p0(i64 8, ptr %6) #6
  %9 = load ptr, ptr %3, align 8
  %10 = getelementptr inbounds nuw %struct.ExprContext, ptr %9, i32 0, i32 17
  %11 = load ptr, ptr %10, align 8
  %12 = icmp eq ptr %11, null
  br i1 %12, label %13, label %14

13:                                               ; preds = %2
  store i32 1, ptr %7, align 4
  br label %44

14:                                               ; preds = %2
  %15 = load ptr, ptr %3, align 8
  %16 = getelementptr inbounds nuw %struct.ExprContext, ptr %15, i32 0, i32 5
  %17 = load ptr, ptr %16, align 8
  %18 = call ptr @MemoryContextSwitchTo(ptr noundef %17)
  store ptr %18, ptr %6, align 8
  br label %19

19:                                               ; preds = %39, %14
  %20 = load ptr, ptr %3, align 8
  %21 = getelementptr inbounds nuw %struct.ExprContext, ptr %20, i32 0, i32 17
  %22 = load ptr, ptr %21, align 8
  store ptr %22, ptr %5, align 8
  %23 = icmp ne ptr %22, null
  br i1 %23, label %24, label %41

24:                                               ; preds = %19
  %25 = load ptr, ptr %5, align 8
  %26 = getelementptr inbounds nuw %struct.ExprContext_CB, ptr %25, i32 0, i32 0
  %27 = load ptr, ptr %26, align 8
  %28 = load ptr, ptr %3, align 8
  %29 = getelementptr inbounds nuw %struct.ExprContext, ptr %28, i32 0, i32 17
  store ptr %27, ptr %29, align 8
  %30 = load i8, ptr %4, align 1, !range !6, !noundef !7
  %31 = trunc i8 %30 to i1
  br i1 %31, label %32, label %39

32:                                               ; preds = %24
  %33 = load ptr, ptr %5, align 8
  %34 = getelementptr inbounds nuw %struct.ExprContext_CB, ptr %33, i32 0, i32 1
  %35 = load ptr, ptr %34, align 8
  %36 = load ptr, ptr %5, align 8
  %37 = getelementptr inbounds nuw %struct.ExprContext_CB, ptr %36, i32 0, i32 2
  %38 = load i64, ptr %37, align 8
  call void %35(i64 noundef %38)
  br label %39

39:                                               ; preds = %32, %24
  %40 = load ptr, ptr %5, align 8
  call void @pfree(ptr noundef %40)
  br label %19, !llvm.loop !9

41:                                               ; preds = %19
  %42 = load ptr, ptr %6, align 8
  %43 = call ptr @MemoryContextSwitchTo(ptr noundef %42)
  store i32 0, ptr %7, align 4
  br label %44

44:                                               ; preds = %41, %13
  call void @llvm.lifetime.end.p0(i64 8, ptr %6) #6
  call void @llvm.lifetime.end.p0(i64 8, ptr %5) #6
  %45 = load i32, ptr %7, align 4
  switch i32 %45, label %47 [
    i32 0, label %46
    i32 1, label %46
  ]

46:                                               ; preds = %44, %44
  ret void

47:                                               ; preds = %44
  unreachable
}

; Function Attrs: nounwind uwtable
define dso_local void @ReScanExprContext(ptr noundef %0) #0 {
  %2 = alloca ptr, align 8
  store ptr %0, ptr %2, align 8
  %3 = load ptr, ptr %2, align 8
  call void @ShutdownExprContext(ptr noundef %3, i1 noundef zeroext true)
  %4 = load ptr, ptr %2, align 8
  %5 = getelementptr inbounds nuw %struct.ExprContext, ptr %4, i32 0, i32 5
  %6 = load ptr, ptr %5, align 8
  call void @MemoryContextReset(ptr noundef %6)
  ret void
}