; Function Attrs: nounwind uwtable
define dso_local void @ReScanExprContext(ptr noundef captures(none) %0) local_unnamed_addr #0 {
  %2 = getelementptr inbounds nuw i8, ptr %0, i64 136
  %3 = load ptr, ptr %2, align 8
  %4 = icmp eq ptr %3, null
  br i1 %4, label %ShutdownExprContext.exit, label %.lr.ph.i

.lr.ph.i:                                         ; preds = %1
  %5 = getelementptr inbounds nuw i8, ptr %0, i64 40
  %6 = load ptr, ptr %5, align 8
  %7 = load ptr, ptr @CurrentMemoryContext, align 8
  store ptr %6, ptr @CurrentMemoryContext, align 8
  br label %.lr.ph.split.us.i

.lr.ph.split.us.i:                                ; preds = %.lr.ph.split.us.i, %.lr.ph.i
  %8 = phi ptr [ %14, %.lr.ph.split.us.i ], [ %3, %.lr.ph.i ]
  %9 = load ptr, ptr %8, align 8
  store ptr %9, ptr %2, align 8
  %10 = getelementptr inbounds nuw i8, ptr %8, i64 8
  %11 = load ptr, ptr %10, align 8
  %12 = getelementptr inbounds nuw i8, ptr %8, i64 16
  %13 = load i64, ptr %12, align 8
  tail call void %11(i64 noundef %13) #12
  tail call void @pfree(ptr noundef nonnull %8) #12
  %14 = load ptr, ptr %2, align 8
  %.not.us.i = icmp eq ptr %14, null
  br i1 %.not.us.i, label %._crit_edge.i, label %.lr.ph.split.us.i, !llvm.loop !4

._crit_edge.i:                                    ; preds = %.lr.ph.split.us.i
  store ptr %7, ptr @CurrentMemoryContext, align 8
  br label %ShutdownExprContext.exit

ShutdownExprContext.exit:                         ; preds = %1, %._crit_edge.i
  %15 = getelementptr inbounds nuw i8, ptr %0, i64 40
  %16 = load ptr, ptr %15, align 8
  tail call void @MemoryContextReset(ptr noundef %16) #12
  ret void
}